; Function Attrs: mustprogress uwtable
define void @udat_adoptNumberFormatForFields_75(ptr noundef %fmt, ptr noundef %fields, ptr noundef %numberFormatToSet, ptr noundef %status) local_unnamed_addr #1 personality ptr @__gxx_personality_v0 {
entry:
  %overrideFields = alloca %"class.icu_75::UnicodeString", align 8
  %0 = load i32, ptr %status, align 4
  %cmp.i.i = icmp sgt i32 %0, 0
  br i1 %cmp.i.i, label %if.end2, label %land.lhs.true.i

land.lhs.true.i:                                  ; preds = %entry
  %1 = icmp eq ptr %fmt, null
  br i1 %1, label %if.then.i, label %dynamic_cast.notnull.i

dynamic_cast.notnull.i:                           ; preds = %land.lhs.true.i
  %2 = tail call ptr @__dynamic_cast(ptr nonnull %fmt, ptr nonnull @_ZTIN6icu_7510DateFormatE, ptr nonnull @_ZTIN6icu_7516SimpleDateFormatE, i64 0) #7
  %3 = icmp eq ptr %2, null
  br i1 %3, label %if.then.i, label %_ZL24verifyIsSimpleDateFormatPKPvP10UErrorCode.exit

if.then.i:                                        ; preds = %dynamic_cast.notnull.i, %land.lhs.true.i
  store i32 1, ptr %status, align 4
  br label %if.end2

_ZL24verifyIsSimpleDateFormatPKPvP10UErrorCode.exit: ; preds = %dynamic_cast.notnull.i
  %cmp.not = icmp eq ptr %fields, null
  br i1 %cmp.not, label %if.end2, label %if.then1

if.then1:                                         ; preds = %_ZL24verifyIsSimpleDateFormatPKPvP10UErrorCode.exit
  call void @_ZN6icu_7513UnicodeStringC1EPKDs(ptr noundef nonnull align 8 dereferenceable(64) %overrideFields, ptr noundef nonnull %fields)
  invoke void @_ZN6icu_7516SimpleDateFormat17adoptNumberFormatERKNS_13UnicodeStringEPNS_12NumberFormatER10UErrorCode(ptr noundef nonnull align 8 dereferenceable(832) %fmt, ptr noundef nonnull align 8 dereferenceable(64) %overrideFields, ptr noundef %numberFormatToSet, ptr noundef nonnull align 4 dereferenceable(4) %status)
          to label %invoke.cont unwind label %lpad

invoke.cont:                                      ; preds = %if.then1
  call void @_ZN6icu_7513UnicodeStringD1Ev(ptr noundef nonnull align 8 dereferenceable(64) %overrideFields) #7
  br label %if.end2

lpad:                                             ; preds = %if.then1
  %4 = landingpad { ptr, i32 }
          cleanup
  call void @_ZN6icu_7513UnicodeStringD1Ev(ptr noundef nonnull align 8 dereferenceable(64) %overrideFields) #7
  resume { ptr, i32 } %4

if.end2:                                          ; preds = %if.then.i, %entry, %_ZL24verifyIsSimpleDateFormatPKPvP10UErrorCode.exit, %invoke.cont
  ret void
}